target datalayout = "e-m:e-p270:32:32-p271:32:32-p272:64:64-i64:64-i128:128-f80:128-n8:16:32:64-S128"
target triple = "x86_64-pc-linux-gnu"

%struct.auth_ops_t = type { ptr, ptr, ptr, ptr, ptr, ptr, ptr, ptr, ptr, ptr, ptr, ptr, ptr, ptr, ptr, ptr }

@g_context_num = internal global i32 -1, align 4
@ops = internal global ptr null, align 8
@.str.17 = private unnamed_addr constant [32 x i8] c"%s: pthread_rwlock_unlock(): %m\00", align 1
@.str.19 = private unnamed_addr constant [32 x i8] c"%s: pthread_rwlock_rdlock(): %m\00", align 1
@__func__.auth_g_token_generate = private unnamed_addr constant [22 x i8] c"auth_g_token_generate\00", align 1
@context_lock = internal global { { i32, i32, i32, i32, i32, i32, i32, i32, i8, [7 x i8], i64, i32, [4 x i8] } } zeroinitializer, align 8

; Function Attrs: nounwind uwtable
define dso_local ptr @auth_g_token_generate(i32 noundef %0, ptr noundef %1, i32 noundef %2) #0 {
  %4 = alloca i32, align 4
  %5 = alloca ptr, align 8
  %6 = alloca i32, align 4
  %7 = alloca ptr, align 8
  %8 = alloca i32, align 4
  %9 = alloca i32, align 4
  %10 = alloca i32, align 4
  %11 = alloca i32, align 4
  store i32 %0, ptr %4, align 4
  store ptr %1, ptr %5, align 8
  store i32 %2, ptr %6, align 4
  call void @llvm.lifetime.start.p0(i64 8, ptr %7) #6
  store ptr null, ptr %7, align 8
  br label %12

12:                                               ; preds = %3
  call void @llvm.lifetime.start.p0(i64 4, ptr %8) #6
  %13 = call i32 @pthread_rwlock_rdlock(ptr noundef @context_lock) #6
  store i32 %13, ptr %8, align 4
  %14 = load i32, ptr %8, align 4
  %15 = icmp ne i32 %14, 0
  br i1 %15, label %16, label %19

16:                                               ; preds = %12
  %17 = load i32, ptr %8, align 4
  %18 = call ptr @__errno_location() #8
  store i32 %17, ptr %18, align 4
  call void (ptr, ...) @fatal_abort(ptr noundef @.str.19, ptr noundef @__func__.auth_g_token_generate) #7
  unreachable

19:                                               ; preds = %12
  call void @llvm.lifetime.end.p0(i64 4, ptr %8) #6
  br label %20

20:                                               ; preds = %19
  br label %21

21:                                               ; preds = %20
  call void @llvm.lifetime.start.p0(i64 4, ptr %9) #6
  store i32 0, ptr %9, align 4
  br label %22

22:                                               ; preds = %48, %21
  %23 = load i32, ptr %9, align 4
  %24 = load i32, ptr @g_context_num, align 4
  %25 = icmp slt i32 %23, %24
  br i1 %25, label %27, label %26

26:                                               ; preds = %22
  store i32 4, ptr %10, align 4
  br label %51

27:                                               ; preds = %22
  %28 = load i32, ptr %4, align 4
  %29 = load ptr, ptr @ops, align 8
  %30 = load i32, ptr %9, align 4
  %31 = sext i32 %30 to i64
  %32 = getelementptr inbounds %struct.auth_ops_t, ptr %29, i64 %31
  %33 = getelementptr inbounds nuw %struct.auth_ops_t, ptr %32, i32 0, i32 0
  %34 = load ptr, ptr %33, align 8
  %35 = load i32, ptr %34, align 4
  %36 = icmp eq i32 %28, %35
  br i1 %36, label %37, label %47

37:                                               ; preds = %27
  %38 = load ptr, ptr @ops, align 8
  %39 = load i32, ptr %9, align 4
  %40 = sext i32 %39 to i64
  %41 = getelementptr inbounds %struct.auth_ops_t, ptr %38, i64 %40
  %42 = getelementptr inbounds nuw %struct.auth_ops_t, ptr %41, i32 0, i32 14
  %43 = load ptr, ptr %42, align 8
  %44 = load ptr, ptr %5, align 8
  %45 = load i32, ptr %6, align 4
  %46 = call ptr %43(ptr noundef %44, i32 noundef %45)
  store ptr %46, ptr %7, align 8
  store i32 4, ptr %10, align 4
  br label %51

47:                                               ; preds = %27
  br label %48

48:                                               ; preds = %47
  %49 = load i32, ptr %9, align 4
  %50 = add nsw i32 %49, 1
  store i32 %50, ptr %9, align 4
  br label %22, !llvm.loop !17

51:                                               ; preds = %37, %26
  call void @llvm.lifetime.end.p0(i64 4, ptr %9) #6
  br label %52

52:                                               ; preds = %51
  br label %53

53:                                               ; preds = %52
  call void @llvm.lifetime.start.p0(i64 4, ptr %11) #6
  %54 = call i32 @pthread_rwlock_unlock(ptr noundef @context_lock) #6
  store i32 %54, ptr %11, align 4
  %55 = load i32, ptr %11, align 4
  %56 = icmp ne i32 %55, 0
  br i1 %56, label %57, label %60

57:                                               ; preds = %53
  %58 = load i32, ptr %11, align 4
  %59 = call ptr @__errno_location() #8
  store i32 %58, ptr %59, align 4
  call void (ptr, ...) @fatal_abort(ptr noundef @.str.17, ptr noundef @__func__.auth_g_token_generate) #7
  unreachable

60:                                               ; preds = %53
  call void @llvm.lifetime.end.p0(i64 4, ptr %11) #6
  br label %61

61:                                               ; preds = %60
  br label %62

62:                                               ; preds = %61
  %63 = load ptr, ptr %7, align 8
  store i32 1, ptr %10, align 4
  call void @llvm.lifetime.end.p0(i64 8, ptr %7) #6
  ret ptr %63
}