; Function Attrs: nounwind uwtable
define dso_local ptr @auth_g_token_generate(i32 noundef %0, ptr noundef %1, i32 noundef %2) local_unnamed_addr #2 {
  %4 = tail call i32 @pthread_rwlock_rdlock(ptr noundef nonnull @context_lock) #12
  %.not = icmp eq i32 %4, 0
  br i1 %.not, label %.preheader, label %8

.preheader:                                       ; preds = %3
  %5 = load i32, ptr @g_context_num, align 4
  %6 = icmp sgt i32 %5, 0
  br i1 %6, label %.lr.ph, label %.loopexit

.lr.ph:                                           ; preds = %.preheader
  %7 = load ptr, ptr @ops, align 8
  %wide.trip.count = zext nneg i32 %5 to i64
  br label %11

8:                                                ; preds = %3
  %9 = tail call ptr @__errno_location() #13
  store i32 %4, ptr %9, align 4
  tail call void (ptr, ...) @fatal_abort(ptr noundef nonnull @.str.19, ptr noundef nonnull @__func__.auth_g_token_generate) #11
  unreachable

10:                                               ; preds = %11
  %indvars.iv.next = add nuw nsw i64 %indvars.iv, 1
  %exitcond.not = icmp eq i64 %indvars.iv.next, %wide.trip.count
  br i1 %exitcond.not, label %.loopexit, label %11, !llvm.loop !17

11:                                               ; preds = %.lr.ph, %10
  %indvars.iv = phi i64 [ 0, %.lr.ph ], [ %indvars.iv.next, %10 ]
  %12 = getelementptr inbounds nuw %struct.auth_ops_t, ptr %7, i64 %indvars.iv
  %13 = load ptr, ptr %12, align 8
  %14 = load i32, ptr %13, align 4
  %15 = icmp eq i32 %0, %14
  br i1 %15, label %16, label %10

16:                                               ; preds = %11
  %17 = getelementptr inbounds nuw i8, ptr %12, i64 112
  %18 = load ptr, ptr %17, align 8
  %19 = tail call ptr %18(ptr noundef %1, i32 noundef %2) #12
  br label %.loopexit

.loopexit:                                        ; preds = %10, %.preheader, %16
  %.0 = phi ptr [ %19, %16 ], [ null, %.preheader ], [ null, %10 ]
  %20 = tail call i32 @pthread_rwlock_unlock(ptr noundef nonnull @context_lock) #12
  %.not14 = icmp eq i32 %20, 0
  br i1 %.not14, label %23, label %21

21:                                               ; preds = %.loopexit
  %22 = tail call ptr @__errno_location() #13
  store i32 %20, ptr %22, align 4
  tail call void (ptr, ...) @fatal_abort(ptr noundef nonnull @.str.17, ptr noundef nonnull @__func__.auth_g_token_generate) #11
  unreachable

23:                                               ; preds = %.loopexit
  ret ptr %.0
}